target datalayout = "e-m:e-p270:32:32-p271:32:32-p272:64:64-i64:64-i128:128-f80:128-n8:16:32:64-S128"
target triple = "x86_64-pc-linux-gnu"

%struct.AVFilterContext = type { ptr, ptr, ptr, ptr, ptr, i32, ptr, ptr, i32, ptr, ptr, i32, i32, ptr, ptr, ptr, ptr, i32, ptr, i32, i32 }
%struct.ASetRateContext = type { ptr, i32, i32 }
%struct.AVFilterFormatsConfig = type { ptr, ptr, ptr, ptr, ptr }

; Function Attrs: cold nounwind optsize uwtable
define internal i32 @query_formats(ptr noundef %0, ptr noundef %1, ptr noundef %2) #0 {
  %4 = alloca i32, align 4
  %5 = alloca ptr, align 8
  %6 = alloca ptr, align 8
  %7 = alloca ptr, align 8
  %8 = alloca ptr, align 8
  %9 = alloca i32, align 4
  %10 = alloca [2 x i32], align 4
  %11 = alloca i32, align 4
  store ptr %0, ptr %5, align 8, !tbaa !4
  store ptr %1, ptr %6, align 8, !tbaa !9
  store ptr %2, ptr %7, align 8, !tbaa !9
  call void @llvm.lifetime.start.p0(i64 8, ptr %8) #7
  %12 = load ptr, ptr %5, align 8, !tbaa !4
  %13 = getelementptr inbounds nuw %struct.AVFilterContext, ptr %12, i32 0, i32 9
  %14 = load ptr, ptr %13, align 8, !tbaa !12
  store ptr %14, ptr %8, align 8, !tbaa !24
  call void @llvm.lifetime.start.p0(i64 4, ptr %9) #7
  call void @llvm.lifetime.start.p0(i64 8, ptr %10) #7
  %15 = load ptr, ptr %8, align 8, !tbaa !24
  %16 = getelementptr inbounds nuw %struct.ASetRateContext, ptr %15, i32 0, i32 1
  %17 = load i32, ptr %16, align 8, !tbaa !26
  store i32 %17, ptr %10, align 4, !tbaa !28
  %18 = getelementptr inbounds i32, ptr %10, i64 1
  store i32 -1, ptr %18, align 4, !tbaa !28
  %19 = call ptr @ff_all_samplerates()
  %20 = load ptr, ptr %6, align 8, !tbaa !9
  %21 = getelementptr inbounds ptr, ptr %20, i64 0
  %22 = load ptr, ptr %21, align 8, !tbaa !29
  %23 = getelementptr inbounds nuw %struct.AVFilterFormatsConfig, ptr %22, i32 0, i32 1
  %24 = call i32 @ff_formats_ref(ptr noundef %19, ptr noundef %23)
  store i32 %24, ptr %9, align 4, !tbaa !28
  %25 = icmp slt i32 %24, 0
  br i1 %25, label %26, label %28

26:                                               ; preds = %3
  %27 = load i32, ptr %9, align 4, !tbaa !28
  store i32 %27, ptr %4, align 4
  store i32 1, ptr %11, align 4
  br label %36

28:                                               ; preds = %3
  %29 = getelementptr inbounds [2 x i32], ptr %10, i64 0, i64 0
  %30 = call ptr @ff_make_format_list(ptr noundef %29)
  %31 = load ptr, ptr %7, align 8, !tbaa !9
  %32 = getelementptr inbounds ptr, ptr %31, i64 0
  %33 = load ptr, ptr %32, align 8, !tbaa !29
  %34 = getelementptr inbounds nuw %struct.AVFilterFormatsConfig, ptr %33, i32 0, i32 1
  %35 = call i32 @ff_formats_ref(ptr noundef %30, ptr noundef %34)
  store i32 %35, ptr %4, align 4
  store i32 1, ptr %11, align 4
  br label %36

36:                                               ; preds = %28, %26
  call void @llvm.lifetime.end.p0(i64 8, ptr %10) #7
  call void @llvm.lifetime.end.p0(i64 4, ptr %9) #7
  call void @llvm.lifetime.end.p0(i64 8, ptr %8) #7
  %37 = load i32, ptr %4, align 4
  ret i32 %37
}