; Function Attrs: cold nounwind optsize uwtable
define internal i32 @query_formats(ptr noundef readonly captures(none) %0, ptr noundef readonly captures(none) %1, ptr noundef readonly captures(none) %2) #0 {
  %4 = alloca [2 x i32], align 4
  %5 = getelementptr inbounds nuw i8, ptr %0, i64 72
  %6 = load ptr, ptr %5, align 8, !tbaa !4
  call void @llvm.lifetime.start.p0(i64 8, ptr nonnull %4) #6
  %7 = getelementptr inbounds nuw i8, ptr %6, i64 8
  %8 = load i32, ptr %7, align 8, !tbaa !20
  store i32 %8, ptr %4, align 4, !tbaa !22
  %9 = getelementptr inbounds nuw i8, ptr %4, i64 4
  store i32 -1, ptr %9, align 4, !tbaa !22
  %10 = tail call ptr @ff_all_samplerates() #6
  %11 = load ptr, ptr %1, align 8, !tbaa !23
  %12 = getelementptr inbounds nuw i8, ptr %11, i64 8
  %13 = tail call i32 @ff_formats_ref(ptr noundef %10, ptr noundef nonnull %12) #6
  %14 = icmp slt i32 %13, 0
  br i1 %14, label %20, label %15

15:                                               ; preds = %3
  %16 = call ptr @ff_make_format_list(ptr noundef nonnull %4) #6
  %17 = load ptr, ptr %2, align 8, !tbaa !23
  %18 = getelementptr inbounds nuw i8, ptr %17, i64 8
  %19 = call i32 @ff_formats_ref(ptr noundef %16, ptr noundef nonnull %18) #6
  br label %20

20:                                               ; preds = %3, %15
  %.0 = phi i32 [ %19, %15 ], [ %13, %3 ]
  call void @llvm.lifetime.end.p0(i64 8, ptr nonnull %4) #6
  ret i32 %.0
}